; Function Attrs: nounwind uwtable
define dso_local noundef zeroext i1 @node_features_g_node_update_valid(ptr noundef %0, ptr noundef %1) local_unnamed_addr #0 {
  %3 = alloca %struct.timeval, align 8
  %4 = alloca %struct.timeval, align 8
  %5 = alloca [20 x i8], align 16
  %6 = alloca i64, align 8
  call void @llvm.lifetime.start.p0(i64 16, ptr nonnull %3) #9
  call void @llvm.lifetime.start.p0(i64 16, ptr nonnull %4) #9
  call void @llvm.lifetime.start.p0(i64 20, ptr nonnull %5) #9
  call void @llvm.memset.p0.i64(ptr noundef nonnull align 16 dereferenceable(20) %5, i8 0, i64 20, i1 false)
  call void @llvm.lifetime.start.p0(i64 8, ptr nonnull %6) #9
  %7 = call i32 @gettimeofday(ptr noundef nonnull %3, ptr noundef null) #9
  %8 = tail call i32 @pthread_mutex_lock(ptr noundef nonnull @g_context_lock) #9
  %.not = icmp eq i32 %8, 0
  br i1 %.not, label %.preheader, label %11

.preheader:                                       ; preds = %2
  %9 = load i32, ptr @g_context_cnt, align 4
  %10 = icmp slt i32 %9, 1
  br i1 %10, label %._crit_edge, label %.lr.ph

11:                                               ; preds = %2
  %12 = tail call ptr @__errno_location() #10
  store i32 %8, ptr %12, align 4
  tail call void (ptr, ...) @fatal_abort(ptr noundef nonnull @.str.1, ptr noundef nonnull @__func__.node_features_g_node_update_valid) #11
  unreachable

13:                                               ; preds = %.lr.ph
  %indvars.iv.next = add nuw nsw i64 %indvars.iv, 1
  %14 = load i32, ptr @g_context_cnt, align 4
  %15 = sext i32 %14 to i64
  %.not17 = icmp slt i64 %indvars.iv.next, %15
  br i1 %.not17, label %.lr.ph, label %._crit_edge, !llvm.loop !23

.lr.ph:                                           ; preds = %.preheader, %13
  %indvars.iv = phi i64 [ %indvars.iv.next, %13 ], [ 0, %.preheader ]
  %16 = load ptr, ptr @ops, align 8
  %17 = getelementptr inbounds nuw %struct.node_features_ops, ptr %16, i64 %indvars.iv, i32 11
  %18 = load ptr, ptr %17, align 8
  %19 = tail call zeroext i1 %18(ptr noundef %0, ptr noundef %1) #9
  br i1 %19, label %13, label %._crit_edge

._crit_edge:                                      ; preds = %.lr.ph, %13, %.preheader
  %.lcssa = phi i1 [ true, %.preheader ], [ %19, %13 ], [ %19, %.lr.ph ]
  %20 = tail call i32 @pthread_mutex_unlock(ptr noundef nonnull @g_context_lock) #9
  %.not13 = icmp eq i32 %20, 0
  br i1 %.not13, label %23, label %21

21:                                               ; preds = %._crit_edge
  %22 = tail call ptr @__errno_location() #10
  store i32 %20, ptr %22, align 4
  tail call void (ptr, ...) @fatal_abort(ptr noundef nonnull @.str.7, ptr noundef nonnull @__func__.node_features_g_node_update_valid) #11
  unreachable

23:                                               ; preds = %._crit_edge
  %24 = call i32 @gettimeofday(ptr noundef nonnull %4, ptr noundef null) #9
  call void @slurm_diff_tv_str(ptr noundef nonnull %3, ptr noundef nonnull %4, ptr noundef nonnull %5, i32 noundef 20, ptr noundef nonnull @__func__.node_features_g_node_update_valid, i64 noundef 0, ptr noundef nonnull %6) #9
  call void @llvm.lifetime.end.p0(i64 8, ptr nonnull %6) #9
  call void @llvm.lifetime.end.p0(i64 20, ptr nonnull %5) #9
  call void @llvm.lifetime.end.p0(i64 16, ptr nonnull %4) #9
  call void @llvm.lifetime.end.p0(i64 16, ptr nonnull %3) #9
  ret i1 %.lcssa
}